target datalayout = "e-m:e-p270:32:32-p271:32:32-p272:64:64-i64:64-i128:128-f80:128-n8:16:32:64-S128"
target triple = "x86_64-pc-linux-gnu"

%struct.object_id = type { [32 x i8], i32 }
%struct.ref_array_item = type { %struct.object_id, ptr, i32, i32, ptr, ptr, ptr, ptr, ptr, [0 x i8] }
%struct.ref_array = type { i32, i32, ptr, ptr, ptr, i64 }

@.str.143 = private unnamed_addr constant [27 x i8] c"size_t overflow: %lu * %lu\00", align 1
@.str.144 = private unnamed_addr constant [27 x i8] c"size_t overflow: %lu + %lu\00", align 1

; Function Attrs: inlinehint nounwind uwtable
define internal i64 @st_mult(i64 noundef %0, i64 noundef %1) #1 {
  %3 = alloca i64, align 8
  %4 = alloca i64, align 8
  store i64 %0, ptr %3, align 8, !tbaa !71
  store i64 %1, ptr %4, align 8, !tbaa !71
  %5 = load i64, ptr %3, align 8, !tbaa !71
  %6 = icmp ne i64 %5, 0
  br i1 %6, label %7, label %15

7:                                                ; preds = %2
  %8 = load i64, ptr %4, align 8, !tbaa !71
  %9 = load i64, ptr %3, align 8, !tbaa !71
  %10 = udiv i64 -1, %9
  %11 = icmp ugt i64 %8, %10
  br i1 %11, label %12, label %15

12:                                               ; preds = %7
  %13 = load i64, ptr %3, align 8, !tbaa !71
  %14 = load i64, ptr %4, align 8, !tbaa !71
  call void (ptr, ...) @die(ptr noundef @.str.143, i64 noundef %13, i64 noundef %14) #13
  unreachable

15:                                               ; preds = %7, %2
  %16 = load i64, ptr %3, align 8, !tbaa !71
  %17 = load i64, ptr %4, align 8, !tbaa !71
  %18 = mul i64 %16, %17
  ret i64 %18
}

; Function Attrs: inlinehint nounwind uwtable
define internal void @oidcpy(ptr noundef %0, ptr noundef %1) #1 {
  %3 = alloca ptr, align 8
  %4 = alloca ptr, align 8
  store ptr %0, ptr %3, align 8, !tbaa !68
  store ptr %1, ptr %4, align 8, !tbaa !68
  %5 = load ptr, ptr %3, align 8, !tbaa !68
  %6 = getelementptr inbounds nuw %struct.object_id, ptr %5, i32 0, i32 0
  %7 = getelementptr inbounds [32 x i8], ptr %6, i64 0, i64 0
  %8 = load ptr, ptr %4, align 8, !tbaa !68
  %9 = getelementptr inbounds nuw %struct.object_id, ptr %8, i32 0, i32 0
  %10 = getelementptr inbounds [32 x i8], ptr %9, i64 0, i64 0
  call void @llvm.memcpy.p0.p0.i64(ptr align 4 %7, ptr align 4 %10, i64 32, i1 false)
  %11 = load ptr, ptr %4, align 8, !tbaa !68
  %12 = getelementptr inbounds nuw %struct.object_id, ptr %11, i32 0, i32 1
  %13 = load i32, ptr %12, align 4, !tbaa !222
  %14 = load ptr, ptr %3, align 8, !tbaa !68
  %15 = getelementptr inbounds nuw %struct.object_id, ptr %14, i32 0, i32 1
  store i32 %13, ptr %15, align 4, !tbaa !222
  ret void
}

; Function Attrs: inlinehint nounwind uwtable
define internal i64 @st_add(i64 noundef %0, i64 noundef %1) #1 {
  %3 = alloca i64, align 8
  %4 = alloca i64, align 8
  store i64 %0, ptr %3, align 8, !tbaa !71
  store i64 %1, ptr %4, align 8, !tbaa !71
  %5 = load i64, ptr %4, align 8, !tbaa !71
  %6 = load i64, ptr %3, align 8, !tbaa !71
  %7 = sub i64 -1, %6
  %8 = icmp ugt i64 %5, %7
  br i1 %8, label %9, label %12

9:                                                ; preds = %2
  %10 = load i64, ptr %3, align 8, !tbaa !71
  %11 = load i64, ptr %4, align 8, !tbaa !71
  call void (ptr, ...) @die(ptr noundef @.str.144, i64 noundef %10, i64 noundef %11) #13
  unreachable

12:                                               ; preds = %2
  %13 = load i64, ptr %3, align 8, !tbaa !71
  %14 = load i64, ptr %4, align 8, !tbaa !71
  %15 = add i64 %13, %14
  ret i64 %15
}

; Function Attrs: nounwind uwtable
define internal void @ref_array_append(ptr noundef %0, ptr noundef %1) #0 {
  %3 = alloca ptr, align 8
  %4 = alloca ptr, align 8
  store ptr %0, ptr %3, align 8, !tbaa !66
  store ptr %1, ptr %4, align 8, !tbaa !69
  br label %5

5:                                                ; preds = %2
  %6 = load ptr, ptr %3, align 8, !tbaa !66
  %7 = getelementptr inbounds nuw %struct.ref_array, ptr %6, i32 0, i32 0
  %8 = load i32, ptr %7, align 8, !tbaa !72
  %9 = add nsw i32 %8, 1
  %10 = load ptr, ptr %3, align 8, !tbaa !66
  %11 = getelementptr inbounds nuw %struct.ref_array, ptr %10, i32 0, i32 1
  %12 = load i32, ptr %11, align 4, !tbaa !77
  %13 = icmp sgt i32 %9, %12
  br i1 %13, label %14, label %54

14:                                               ; preds = %5
  %15 = load ptr, ptr %3, align 8, !tbaa !66
  %16 = getelementptr inbounds nuw %struct.ref_array, ptr %15, i32 0, i32 1
  %17 = load i32, ptr %16, align 4, !tbaa !77
  %18 = add nsw i32 %17, 16
  %19 = mul nsw i32 %18, 3
  %20 = sdiv i32 %19, 2
  %21 = load ptr, ptr %3, align 8, !tbaa !66
  %22 = getelementptr inbounds nuw %struct.ref_array, ptr %21, i32 0, i32 0
  %23 = load i32, ptr %22, align 8, !tbaa !72
  %24 = add nsw i32 %23, 1
  %25 = icmp slt i32 %20, %24
  br i1 %25, label %26, label %33

26:                                               ; preds = %14
  %27 = load ptr, ptr %3, align 8, !tbaa !66
  %28 = getelementptr inbounds nuw %struct.ref_array, ptr %27, i32 0, i32 0
  %29 = load i32, ptr %28, align 8, !tbaa !72
  %30 = add nsw i32 %29, 1
  %31 = load ptr, ptr %3, align 8, !tbaa !66
  %32 = getelementptr inbounds nuw %struct.ref_array, ptr %31, i32 0, i32 1
  store i32 %30, ptr %32, align 4, !tbaa !77
  br label %42

33:                                               ; preds = %14
  %34 = load ptr, ptr %3, align 8, !tbaa !66
  %35 = getelementptr inbounds nuw %struct.ref_array, ptr %34, i32 0, i32 1
  %36 = load i32, ptr %35, align 4, !tbaa !77
  %37 = add nsw i32 %36, 16
  %38 = mul nsw i32 %37, 3
  %39 = sdiv i32 %38, 2
  %40 = load ptr, ptr %3, align 8, !tbaa !66
  %41 = getelementptr inbounds nuw %struct.ref_array, ptr %40, i32 0, i32 1
  store i32 %39, ptr %41, align 4, !tbaa !77
  br label %42

42:                                               ; preds = %33, %26
  %43 = load ptr, ptr %3, align 8, !tbaa !66
  %44 = getelementptr inbounds nuw %struct.ref_array, ptr %43, i32 0, i32 2
  %45 = load ptr, ptr %44, align 8, !tbaa !78
  %46 = load ptr, ptr %3, align 8, !tbaa !66
  %47 = getelementptr inbounds nuw %struct.ref_array, ptr %46, i32 0, i32 1
  %48 = load i32, ptr %47, align 4, !tbaa !77
  %49 = sext i32 %48 to i64
  %50 = call i64 @st_mult(i64 noundef 8, i64 noundef %49)
  %51 = call ptr @xrealloc(ptr noundef %45, i64 noundef %50)
  %52 = load ptr, ptr %3, align 8, !tbaa !66
  %53 = getelementptr inbounds nuw %struct.ref_array, ptr %52, i32 0, i32 2
  store ptr %51, ptr %53, align 8, !tbaa !78
  br label %54

54:                                               ; preds = %42, %5
  br label %55

55:                                               ; preds = %54
  %56 = load ptr, ptr %4, align 8, !tbaa !69
  %57 = load ptr, ptr %3, align 8, !tbaa !66
  %58 = getelementptr inbounds nuw %struct.ref_array, ptr %57, i32 0, i32 2
  %59 = load ptr, ptr %58, align 8, !tbaa !78
  %60 = load ptr, ptr %3, align 8, !tbaa !66
  %61 = getelementptr inbounds nuw %struct.ref_array, ptr %60, i32 0, i32 0
  %62 = load i32, ptr %61, align 8, !tbaa !72
  %63 = add nsw i32 %62, 1
  store i32 %63, ptr %61, align 8, !tbaa !72
  %64 = sext i32 %62 to i64
  %65 = getelementptr inbounds ptr, ptr %59, i64 %64
  store ptr %56, ptr %65, align 8, !tbaa !69
  ret void
}

; Function Attrs: nounwind uwtable
define internal ptr @new_ref_array_item(ptr noundef %0, ptr noundef %1) #0 {
  %3 = alloca ptr, align 8
  %4 = alloca ptr, align 8
  %5 = alloca ptr, align 8
  %6 = alloca i64, align 8
  store ptr %0, ptr %3, align 8, !tbaa !13
  store ptr %1, ptr %4, align 8, !tbaa !68
  call void @llvm.lifetime.start.p0(i64 8, ptr %5) #11
  br label %7

7:                                                ; preds = %2
  call void @llvm.lifetime.start.p0(i64 8, ptr %6) #11
  %8 = load ptr, ptr %3, align 8, !tbaa !13
  %9 = call i64 @strlen(ptr noundef %8) #12
  store i64 %9, ptr %6, align 8, !tbaa !71
  %10 = load i64, ptr %6, align 8, !tbaa !71
  %11 = call i64 @st_add(i64 noundef 96, i64 noundef %10)
  %12 = call i64 @st_add(i64 noundef %11, i64 noundef 1)
  %13 = call ptr @xcalloc(i64 noundef 1, i64 noundef %12)
  store ptr %13, ptr %5, align 8, !tbaa !69
  %14 = load ptr, ptr %5, align 8, !tbaa !69
  %15 = getelementptr inbounds nuw %struct.ref_array_item, ptr %14, i32 0, i32 9
  %16 = getelementptr inbounds [0 x i8], ptr %15, i64 0, i64 0
  %17 = load ptr, ptr %3, align 8, !tbaa !13
  %18 = load i64, ptr %6, align 8, !tbaa !71
  call void @llvm.memcpy.p0.p0.i64(ptr align 8 %16, ptr align 1 %17, i64 %18, i1 false)
  call void @llvm.lifetime.end.p0(i64 8, ptr %6) #11
  br label %19

19:                                               ; preds = %7
  br label %20

20:                                               ; preds = %19
  %21 = load ptr, ptr %5, align 8, !tbaa !69
  %22 = getelementptr inbounds nuw %struct.ref_array_item, ptr %21, i32 0, i32 0
  %23 = load ptr, ptr %4, align 8, !tbaa !68
  call void @oidcpy(ptr noundef %22, ptr noundef %23)
  %24 = load ptr, ptr %5, align 8, !tbaa !69
  %25 = getelementptr inbounds nuw %struct.ref_array_item, ptr %24, i32 0, i32 1
  store ptr null, ptr %25, align 8, !tbaa !13
  %26 = load ptr, ptr %5, align 8, !tbaa !69
  call void @llvm.lifetime.end.p0(i64 8, ptr %5) #11
  ret ptr %26
}

; Function Attrs: nounwind uwtable
define dso_local ptr @ref_array_push(ptr noundef %0, ptr noundef %1, ptr noundef %2) #0 {
  %4 = alloca ptr, align 8
  %5 = alloca ptr, align 8
  %6 = alloca ptr, align 8
  %7 = alloca ptr, align 8
  store ptr %0, ptr %4, align 8, !tbaa !66
  store ptr %1, ptr %5, align 8, !tbaa !13
  store ptr %2, ptr %6, align 8, !tbaa !68
  call void @llvm.lifetime.start.p0(i64 8, ptr %7) #11
  %8 = load ptr, ptr %5, align 8, !tbaa !13
  %9 = load ptr, ptr %6, align 8, !tbaa !68
  %10 = call ptr @new_ref_array_item(ptr noundef %8, ptr noundef %9)
  store ptr %10, ptr %7, align 8, !tbaa !69
  %11 = load ptr, ptr %4, align 8, !tbaa !66
  %12 = load ptr, ptr %7, align 8, !tbaa !69
  call void @ref_array_append(ptr noundef %11, ptr noundef %12)
  %13 = load ptr, ptr %7, align 8, !tbaa !69
  call void @llvm.lifetime.end.p0(i64 8, ptr %7) #11
  ret ptr %13
}