; Function Attrs: nounwind uwtable
define dso_local noundef ptr @ref_array_push(ptr noundef captures(none) %0, ptr noundef readonly captures(none) %1, ptr noundef readonly captures(none) %2) local_unnamed_addr #0 {
  %4 = tail call i64 @strlen(ptr noundef nonnull readonly dereferenceable(1) %1) #24
  %5 = icmp ugt i64 %4, -97
  br i1 %5, label %6, label %st_add.exit.i

6:                                                ; preds = %3
  tail call void (ptr, ...) @die(ptr noundef nonnull @.str.144, i64 noundef 96, i64 noundef %4) #25
  unreachable

st_add.exit.i:                                    ; preds = %3
  %7 = icmp eq i64 %4, -97
  br i1 %7, label %8, label %new_ref_array_item.exit

8:                                                ; preds = %st_add.exit.i
  tail call void (ptr, ...) @die(ptr noundef nonnull @.str.144, i64 noundef -1, i64 noundef 1) #25
  unreachable

new_ref_array_item.exit:                          ; preds = %st_add.exit.i
  %9 = add nuw i64 %4, 97
  %10 = tail call ptr @xcalloc(i64 noundef 1, i64 noundef %9) #23
  %11 = getelementptr inbounds nuw i8, ptr %10, i64 96
  tail call void @llvm.memcpy.p0.p0.i64(ptr nonnull align 8 %11, ptr nonnull readonly align 1 %1, i64 %4, i1 false)
  tail call void @llvm.memcpy.p0.p0.i64(ptr noundef nonnull align 4 dereferenceable(32) %10, ptr noundef nonnull readonly align 4 dereferenceable(32) %2, i64 32, i1 false)
  %12 = getelementptr inbounds nuw i8, ptr %2, i64 32
  %13 = load i32, ptr %12, align 4, !tbaa !58
  %14 = getelementptr inbounds nuw i8, ptr %10, i64 32
  store i32 %13, ptr %14, align 4, !tbaa !58
  %15 = getelementptr inbounds nuw i8, ptr %10, i64 40
  store ptr null, ptr %15, align 8, !tbaa !59
  %16 = load i32, ptr %0, align 8, !tbaa !60
  %17 = getelementptr inbounds nuw i8, ptr %0, i64 4
  %18 = load i32, ptr %17, align 4, !tbaa !65
  %.not.i = icmp slt i32 %16, %18
  br i1 %.not.i, label %._crit_edge.i, label %19

._crit_edge.i:                                    ; preds = %new_ref_array_item.exit
  %.phi.trans.insert.i = getelementptr inbounds nuw i8, ptr %0, i64 8
  %.pre.i = load ptr, ptr %.phi.trans.insert.i, align 8, !tbaa !66
  br label %ref_array_append.exit

19:                                               ; preds = %new_ref_array_item.exit
  %20 = add nsw i32 %16, 1
  %21 = mul i32 %18, 3
  %22 = add i32 %21, 48
  %23 = sdiv i32 %22, 2
  %.not16.i = icmp sgt i32 %23, %16
  %..i = select i1 %.not16.i, i32 %23, i32 %20
  store i32 %..i, ptr %17, align 4, !tbaa !65
  %24 = sext i32 %..i to i64
  %mul.ov.i.i = icmp slt i32 %..i, 0
  br i1 %mul.ov.i.i, label %25, label %st_mult.exit.i

25:                                               ; preds = %19
  tail call void (ptr, ...) @die(ptr noundef nonnull @.str.143, i64 noundef 8, i64 noundef %24) #25
  unreachable

st_mult.exit.i:                                   ; preds = %19
  %26 = getelementptr inbounds nuw i8, ptr %0, i64 8
  %27 = load ptr, ptr %26, align 8, !tbaa !66
  %28 = shl nuw nsw i64 %24, 3
  %29 = tail call ptr @xrealloc(ptr noundef %27, i64 noundef %28) #23
  store ptr %29, ptr %26, align 8, !tbaa !66
  %.pre17.i = load i32, ptr %0, align 8, !tbaa !60
  br label %ref_array_append.exit

ref_array_append.exit:                            ; preds = %._crit_edge.i, %st_mult.exit.i
  %30 = phi i32 [ %16, %._crit_edge.i ], [ %.pre17.i, %st_mult.exit.i ]
  %31 = phi ptr [ %.pre.i, %._crit_edge.i ], [ %29, %st_mult.exit.i ]
  %32 = add nsw i32 %30, 1
  store i32 %32, ptr %0, align 8, !tbaa !60
  %33 = sext i32 %30 to i64
  %34 = getelementptr inbounds ptr, ptr %31, i64 %33
  store ptr %10, ptr %34, align 8, !tbaa !67
  ret ptr %10
}